target datalayout = "e-m:e-p270:32:32-p271:32:32-p272:64:64-i64:64-i128:128-f80:128-n8:16:32:64-S128"
target triple = "x86_64-pc-linux-gnu"

%struct._value_string = type { i32, ptr }
%struct._packet_info = type { ptr, ptr, i32, i32, %struct.nstime_t, %struct.nstime_t, %struct.nstime_t, i8, ptr, ptr, ptr, ptr, %struct._address, %struct._address, %struct._address, %struct._address, %struct._address, %struct._address, i32, ptr, i8, [3 x i8], %struct.anon, i32, i32, i32, i32, ptr, i8, ptr, ptr, i16, i16, i32, i32, i16, i32, i32, ptr, ptr, ptr, i8, i8, i16, i16, i16, i32, i16, i16, ptr, ptr, ptr, ptr, ptr, i32, i32 }
%struct.nstime_t = type { i64, i32 }
%struct._address = type { i32, i32, ptr, ptr }
%struct.anon = type { i8, [3 x i8] }

@hf_cba_acco_count = internal global i32 0, align 4
@hf_cba_acco_conn_error_state = internal global i32 0, align 4
@hf_cba_diagconsconnout = internal global i32 0, align 4
@hf_cba_acco_conn_version = internal global i32 0, align 4
@hf_cba_acco_conn_state = internal global i32 0, align 4
@hf_cba_acco_conn_persist = internal global i32 0, align 4
@ett_cba_getconnectionout = hidden global i32 0, align 4
@dcom_hresult_vals = external constant [0 x %struct._value_string], align 8
@.str.259 = private unnamed_addr constant [17 x i8] c"Unknown (0x%08x)\00", align 1
@.str.261 = private unnamed_addr constant [7 x i8] c" -> %s\00", align 1
@.str.269 = private unnamed_addr constant [9 x i8] c"[%u]: %s\00", align 1
@.str.275 = private unnamed_addr constant [26 x i8] c"ConnErrorState: %s (0x%x)\00", align 1

; Function Attrs: null_pointer_is_valid sspstrong uwtable
define internal i32 @dissect_ICBAAccoMgt2_DiagConsConnections_resp(ptr noundef %0, i32 noundef %1, ptr noundef %2, ptr noundef %3, ptr noundef %4, ptr noundef %5) #0 {
  %7 = alloca ptr, align 8
  %8 = alloca i32, align 4
  %9 = alloca ptr, align 8
  %10 = alloca ptr, align 8
  %11 = alloca ptr, align 8
  %12 = alloca ptr, align 8
  %13 = alloca i32, align 4
  %14 = alloca i32, align 4
  %15 = alloca i32, align 4
  %16 = alloca i32, align 4
  %17 = alloca i8, align 1
  %18 = alloca i16, align 2
  %19 = alloca i16, align 2
  %20 = alloca i32, align 4
  %21 = alloca i32, align 4
  %22 = alloca i32, align 4
  %23 = alloca i32, align 4
  %24 = alloca ptr, align 8
  %25 = alloca ptr, align 8
  %26 = alloca ptr, align 8
  store ptr %0, ptr %7, align 8
  store i32 %1, ptr %8, align 4
  store ptr %2, ptr %9, align 8
  store ptr %3, ptr %10, align 8
  store ptr %4, ptr %11, align 8
  store ptr %5, ptr %12, align 8
  call void @llvm.lifetime.start.p0(i64 4, ptr %13) #12
  call void @llvm.lifetime.start.p0(i64 4, ptr %14) #12
  call void @llvm.lifetime.start.p0(i64 4, ptr %15) #12
  call void @llvm.lifetime.start.p0(i64 4, ptr %16) #12
  call void @llvm.lifetime.start.p0(i64 1, ptr %17) #12
  call void @llvm.lifetime.start.p0(i64 2, ptr %18) #12
  call void @llvm.lifetime.start.p0(i64 2, ptr %19) #12
  call void @llvm.lifetime.start.p0(i64 4, ptr %20) #12
  call void @llvm.lifetime.start.p0(i64 4, ptr %21) #12
  call void @llvm.lifetime.start.p0(i64 4, ptr %22) #12
  call void @llvm.lifetime.start.p0(i64 4, ptr %23) #12
  %27 = load ptr, ptr %7, align 8
  %28 = load i32, ptr %8, align 4
  %29 = load ptr, ptr %9, align 8
  %30 = load ptr, ptr %10, align 8
  %31 = load ptr, ptr %11, align 8
  %32 = load ptr, ptr %12, align 8
  %33 = call i32 @dissect_dcom_that(ptr noundef %27, i32 noundef %28, ptr noundef %29, ptr noundef %30, ptr noundef %31, ptr noundef %32)
  store i32 %33, ptr %8, align 4
  %34 = load ptr, ptr %7, align 8
  %35 = load i32, ptr %8, align 4
  %36 = load ptr, ptr %9, align 8
  %37 = load ptr, ptr %10, align 8
  %38 = load ptr, ptr %11, align 8
  %39 = load ptr, ptr %12, align 8
  %40 = call i32 @dissect_dcom_dcerpc_pointer(ptr noundef %34, i32 noundef %35, ptr noundef %36, ptr noundef %37, ptr noundef %38, ptr noundef %39, ptr noundef %15)
  store i32 %40, ptr %8, align 4
  %41 = load i32, ptr %8, align 4
  store i32 %41, ptr %22, align 4
  %42 = load i32, ptr %15, align 4
  %43 = icmp ne i32 %42, 0
  br i1 %43, label %44, label %127

44:                                               ; preds = %6
  %45 = load ptr, ptr %7, align 8
  %46 = load i32, ptr %8, align 4
  %47 = load ptr, ptr %9, align 8
  %48 = load ptr, ptr %10, align 8
  %49 = load ptr, ptr %11, align 8
  %50 = load ptr, ptr %12, align 8
  %51 = load i32, ptr @hf_cba_acco_count, align 4
  %52 = call i32 @dissect_ndr_uint32(ptr noundef %45, i32 noundef %46, ptr noundef %47, ptr noundef %48, ptr noundef %49, ptr noundef %50, i32 noundef %51, ptr noundef %13)
  store i32 %52, ptr %8, align 4
  %53 = load i32, ptr %8, align 4
  %54 = load i32, ptr %13, align 4
  %55 = mul i32 %54, 16
  %56 = add i32 %53, %55
  store i32 %56, ptr %22, align 4
  %57 = load i32, ptr %13, align 4
  store i32 %57, ptr %14, align 4
  store i32 1, ptr %21, align 4
  br label %58

58:                                               ; preds = %62, %44
  %59 = load i32, ptr %14, align 4
  %60 = add i32 %59, -1
  store i32 %60, ptr %14, align 4
  %61 = icmp ne i32 %59, 0
  br i1 %61, label %62, label %126

62:                                               ; preds = %58
  call void @llvm.lifetime.start.p0(i64 8, ptr %24) #12
  call void @llvm.lifetime.start.p0(i64 8, ptr %25) #12
  call void @llvm.lifetime.start.p0(i64 8, ptr %26) #12
  %63 = load ptr, ptr %10, align 8
  %64 = load i32, ptr @hf_cba_diagconsconnout, align 4
  %65 = load ptr, ptr %7, align 8
  %66 = load i32, ptr %8, align 4
  %67 = call ptr @proto_tree_add_item(ptr noundef %63, i32 noundef %64, ptr noundef %65, i32 noundef %66, i32 noundef 0, i32 noundef 0)
  store ptr %67, ptr %24, align 8
  %68 = load ptr, ptr %24, align 8
  %69 = load i32, ptr @ett_cba_getconnectionout, align 4
  %70 = call ptr @proto_item_add_subtree(ptr noundef %68, i32 noundef %69)
  store ptr %70, ptr %25, align 8
  %71 = load i32, ptr %8, align 4
  store i32 %71, ptr %20, align 4
  %72 = load ptr, ptr %7, align 8
  %73 = load i32, ptr %8, align 4
  %74 = load ptr, ptr %9, align 8
  %75 = load ptr, ptr %25, align 8
  %76 = load ptr, ptr %11, align 8
  %77 = load ptr, ptr %12, align 8
  %78 = load i32, ptr @hf_cba_acco_conn_state, align 4
  %79 = call i32 @dissect_ndr_uint8(ptr noundef %72, i32 noundef %73, ptr noundef %74, ptr noundef %75, ptr noundef %76, ptr noundef %77, i32 noundef %78, ptr noundef %17)
  store i32 %79, ptr %8, align 4
  %80 = load ptr, ptr %7, align 8
  %81 = load i32, ptr %8, align 4
  %82 = load ptr, ptr %9, align 8
  %83 = load ptr, ptr %25, align 8
  %84 = load ptr, ptr %11, align 8
  %85 = load ptr, ptr %12, align 8
  %86 = load i32, ptr @hf_cba_acco_conn_persist, align 4
  %87 = call i32 @dissect_ndr_uint16(ptr noundef %80, i32 noundef %81, ptr noundef %82, ptr noundef %83, ptr noundef %84, ptr noundef %85, i32 noundef %86, ptr noundef %18)
  store i32 %87, ptr %8, align 4
  %88 = load ptr, ptr %7, align 8
  %89 = load i32, ptr %8, align 4
  %90 = load ptr, ptr %9, align 8
  %91 = load ptr, ptr %25, align 8
  %92 = load ptr, ptr %11, align 8
  %93 = load ptr, ptr %12, align 8
  %94 = load i32, ptr @hf_cba_acco_conn_version, align 4
  %95 = call i32 @dissect_ndr_uint16(ptr noundef %88, i32 noundef %89, ptr noundef %90, ptr noundef %91, ptr noundef %92, ptr noundef %93, i32 noundef %94, ptr noundef %19)
  store i32 %95, ptr %8, align 4
  %96 = load ptr, ptr %7, align 8
  %97 = load i32, ptr %8, align 4
  %98 = load ptr, ptr %9, align 8
  %99 = load ptr, ptr %25, align 8
  %100 = load ptr, ptr %11, align 8
  %101 = load ptr, ptr %12, align 8
  %102 = load i32, ptr @hf_cba_acco_conn_error_state, align 4
  %103 = call i32 @dissect_dcom_HRESULT_item(ptr noundef %96, i32 noundef %97, ptr noundef %98, ptr noundef %99, ptr noundef %100, ptr noundef %101, ptr noundef %23, i32 noundef %102, ptr noundef %26)
  store i32 %103, ptr %8, align 4
  %104 = load ptr, ptr %26, align 8
  %105 = load i32, ptr %23, align 4
  %106 = call ptr @val_to_str(i32 noundef %105, ptr noundef @dcom_hresult_vals, ptr noundef @.str.259)
  %107 = load i32, ptr %23, align 4
  call void (ptr, ptr, ...) @proto_item_set_text(ptr noundef %104, ptr noundef @.str.275, ptr noundef %106, i32 noundef %107)
  %108 = load ptr, ptr %7, align 8
  %109 = load i32, ptr %8, align 4
  %110 = load ptr, ptr %9, align 8
  %111 = load ptr, ptr %25, align 8
  %112 = load ptr, ptr %11, align 8
  %113 = load ptr, ptr %12, align 8
  %114 = load i32, ptr %21, align 4
  %115 = call i32 @dissect_dcom_indexed_HRESULT(ptr noundef %108, i32 noundef %109, ptr noundef %110, ptr noundef %111, ptr noundef %112, ptr noundef %113, ptr noundef %16, i32 noundef %114)
  store i32 %115, ptr %8, align 4
  %116 = load ptr, ptr %24, align 8
  %117 = load i32, ptr %21, align 4
  %118 = load i32, ptr %16, align 4
  %119 = call ptr @val_to_str(i32 noundef %118, ptr noundef @dcom_hresult_vals, ptr noundef @.str.259)
  call void (ptr, ptr, ...) @proto_item_append_text(ptr noundef %116, ptr noundef @.str.269, i32 noundef %117, ptr noundef %119)
  %120 = load ptr, ptr %24, align 8
  %121 = load i32, ptr %8, align 4
  %122 = load i32, ptr %20, align 4
  %123 = sub i32 %121, %122
  call void @proto_item_set_len(ptr noundef %120, i32 noundef %123)
  %124 = load i32, ptr %21, align 4
  %125 = add i32 %124, 1
  store i32 %125, ptr %21, align 4
  call void @llvm.lifetime.end.p0(i64 8, ptr %26) #12
  call void @llvm.lifetime.end.p0(i64 8, ptr %25) #12
  call void @llvm.lifetime.end.p0(i64 8, ptr %24) #12
  br label %58, !llvm.loop !21

126:                                              ; preds = %58
  br label %127

127:                                              ; preds = %126, %6
  %128 = load ptr, ptr %7, align 8
  %129 = load i32, ptr %22, align 4
  %130 = load ptr, ptr %9, align 8
  %131 = load ptr, ptr %10, align 8
  %132 = load ptr, ptr %11, align 8
  %133 = load ptr, ptr %12, align 8
  %134 = call i32 @dissect_dcom_HRESULT(ptr noundef %128, i32 noundef %129, ptr noundef %130, ptr noundef %131, ptr noundef %132, ptr noundef %133, ptr noundef %16)
  store i32 %134, ptr %22, align 4
  %135 = load ptr, ptr %9, align 8
  %136 = getelementptr inbounds nuw %struct._packet_info, ptr %135, i32 0, i32 1
  %137 = load ptr, ptr %136, align 8
  %138 = load i32, ptr %16, align 4
  %139 = call ptr @val_to_str(i32 noundef %138, ptr noundef @dcom_hresult_vals, ptr noundef @.str.259)
  call void (ptr, i32, ptr, ...) @col_append_fstr(ptr noundef %137, i32 noundef 25, ptr noundef @.str.261, ptr noundef %139)
  %140 = load i32, ptr %22, align 4
  call void @llvm.lifetime.end.p0(i64 4, ptr %23) #12
  call void @llvm.lifetime.end.p0(i64 4, ptr %22) #12
  call void @llvm.lifetime.end.p0(i64 4, ptr %21) #12
  call void @llvm.lifetime.end.p0(i64 4, ptr %20) #12
  call void @llvm.lifetime.end.p0(i64 2, ptr %19) #12
  call void @llvm.lifetime.end.p0(i64 2, ptr %18) #12
  call void @llvm.lifetime.end.p0(i64 1, ptr %17) #12
  call void @llvm.lifetime.end.p0(i64 4, ptr %16) #12
  call void @llvm.lifetime.end.p0(i64 4, ptr %15) #12
  call void @llvm.lifetime.end.p0(i64 4, ptr %14) #12
  call void @llvm.lifetime.end.p0(i64 4, ptr %13) #12
  ret i32 %140
}