; Function Attrs: null_pointer_is_valid sspstrong uwtable
define internal i32 @dissect_ICBAAccoMgt2_DiagConsConnections_resp(ptr noundef %0, i32 noundef %1, ptr noundef %2, ptr noundef %3, ptr noundef %4, ptr noundef %5) #0 {
  %7 = alloca i32, align 4
  %8 = alloca i32, align 4
  %9 = alloca i32, align 4
  %10 = alloca i8, align 1
  %11 = alloca i16, align 2
  %12 = alloca i16, align 2
  %13 = alloca i32, align 4
  %14 = alloca ptr, align 8
  call void @llvm.lifetime.start.p0(i64 4, ptr nonnull %7) #12
  call void @llvm.lifetime.start.p0(i64 4, ptr nonnull %8) #12
  call void @llvm.lifetime.start.p0(i64 4, ptr nonnull %9) #12
  call void @llvm.lifetime.start.p0(i64 1, ptr nonnull %10) #12
  call void @llvm.lifetime.start.p0(i64 2, ptr nonnull %11) #12
  call void @llvm.lifetime.start.p0(i64 2, ptr nonnull %12) #12
  call void @llvm.lifetime.start.p0(i64 4, ptr nonnull %13) #12
  %15 = tail call i32 @dissect_dcom_that(ptr noundef %0, i32 noundef %1, ptr noundef %2, ptr noundef %3, ptr noundef %4, ptr noundef %5)
  %16 = call i32 @dissect_dcom_dcerpc_pointer(ptr noundef %0, i32 noundef %15, ptr noundef %2, ptr noundef %3, ptr noundef %4, ptr noundef %5, ptr noundef nonnull %8)
  %17 = load i32, ptr %8, align 4
  %.not = icmp eq i32 %17, 0
  br i1 %.not, label %.loopexit, label %18

18:                                               ; preds = %6
  %19 = load i32, ptr @hf_cba_acco_count, align 4
  %20 = call i32 @dissect_ndr_uint32(ptr noundef %0, i32 noundef %16, ptr noundef %2, ptr noundef %3, ptr noundef %4, ptr noundef %5, i32 noundef %19, ptr noundef nonnull %7)
  %21 = load i32, ptr %7, align 4
  %22 = shl i32 %21, 4
  %23 = add i32 %22, %20
  %.not7374 = icmp eq i32 %21, 0
  br i1 %.not7374, label %.loopexit, label %.lr.ph

.lr.ph:                                           ; preds = %18, %.lr.ph
  %.077 = phi i32 [ %41, %.lr.ph ], [ %20, %18 ]
  %.07076 = phi i32 [ %24, %.lr.ph ], [ %21, %18 ]
  %.07275 = phi i32 [ %45, %.lr.ph ], [ 1, %18 ]
  %24 = add i32 %.07076, -1
  call void @llvm.lifetime.start.p0(i64 8, ptr nonnull %14) #12
  %25 = load i32, ptr @hf_cba_diagconsconnout, align 4
  %26 = call ptr @proto_tree_add_item(ptr noundef %3, i32 noundef %25, ptr noundef %0, i32 noundef %.077, i32 noundef 0, i32 noundef 0)
  %27 = load i32, ptr @ett_cba_getconnectionout, align 4
  %28 = call ptr @proto_item_add_subtree(ptr noundef %26, i32 noundef %27)
  %29 = load i32, ptr @hf_cba_acco_conn_state, align 4
  %30 = call i32 @dissect_ndr_uint8(ptr noundef %0, i32 noundef %.077, ptr noundef %2, ptr noundef %28, ptr noundef %4, ptr noundef %5, i32 noundef %29, ptr noundef nonnull %10)
  %31 = load i32, ptr @hf_cba_acco_conn_persist, align 4
  %32 = call i32 @dissect_ndr_uint16(ptr noundef %0, i32 noundef %30, ptr noundef %2, ptr noundef %28, ptr noundef %4, ptr noundef %5, i32 noundef %31, ptr noundef nonnull %11)
  %33 = load i32, ptr @hf_cba_acco_conn_version, align 4
  %34 = call i32 @dissect_ndr_uint16(ptr noundef %0, i32 noundef %32, ptr noundef %2, ptr noundef %28, ptr noundef %4, ptr noundef %5, i32 noundef %33, ptr noundef nonnull %12)
  %35 = load i32, ptr @hf_cba_acco_conn_error_state, align 4
  %36 = call i32 @dissect_dcom_HRESULT_item(ptr noundef %0, i32 noundef %34, ptr noundef %2, ptr noundef %28, ptr noundef %4, ptr noundef %5, ptr noundef nonnull %13, i32 noundef %35, ptr noundef nonnull %14)
  %37 = load ptr, ptr %14, align 8
  %38 = load i32, ptr %13, align 4
  %39 = call ptr @val_to_str(i32 noundef %38, ptr noundef nonnull @dcom_hresult_vals, ptr noundef nonnull @.str.259)
  %40 = load i32, ptr %13, align 4
  call void (ptr, ptr, ...) @proto_item_set_text(ptr noundef %37, ptr noundef nonnull @.str.275, ptr noundef %39, i32 noundef %40)
  %41 = call i32 @dissect_dcom_indexed_HRESULT(ptr noundef %0, i32 noundef %36, ptr noundef %2, ptr noundef %28, ptr noundef %4, ptr noundef %5, ptr noundef nonnull %9, i32 noundef %.07275)
  %42 = load i32, ptr %9, align 4
  %43 = call ptr @val_to_str(i32 noundef %42, ptr noundef nonnull @dcom_hresult_vals, ptr noundef nonnull @.str.259)
  call void (ptr, ptr, ...) @proto_item_append_text(ptr noundef %26, ptr noundef nonnull @.str.269, i32 noundef %.07275, ptr noundef %43)
  %44 = sub i32 %41, %.077
  call void @proto_item_set_len(ptr noundef %26, i32 noundef %44)
  %45 = add i32 %.07275, 1
  call void @llvm.lifetime.end.p0(i64 8, ptr nonnull %14) #12
  %.not73 = icmp eq i32 %24, 0
  br i1 %.not73, label %.loopexit, label %.lr.ph, !llvm.loop !22

.loopexit:                                        ; preds = %.lr.ph, %18, %6
  %.071 = phi i32 [ %16, %6 ], [ %23, %18 ], [ %23, %.lr.ph ]
  %46 = call i32 @dissect_dcom_HRESULT(ptr noundef %0, i32 noundef %.071, ptr noundef %2, ptr noundef %3, ptr noundef %4, ptr noundef %5, ptr noundef nonnull %9)
  %47 = getelementptr inbounds nuw i8, ptr %2, i64 8
  %48 = load ptr, ptr %47, align 8
  %49 = load i32, ptr %9, align 4
  %50 = call ptr @val_to_str(i32 noundef %49, ptr noundef nonnull @dcom_hresult_vals, ptr noundef nonnull @.str.259)
  call void (ptr, i32, ptr, ...) @col_append_fstr(ptr noundef %48, i32 noundef 25, ptr noundef nonnull @.str.261, ptr noundef %50)
  call void @llvm.lifetime.end.p0(i64 4, ptr nonnull %13) #12
  call void @llvm.lifetime.end.p0(i64 2, ptr nonnull %12) #12
  call void @llvm.lifetime.end.p0(i64 2, ptr nonnull %11) #12
  call void @llvm.lifetime.end.p0(i64 1, ptr nonnull %10) #12
  call void @llvm.lifetime.end.p0(i64 4, ptr nonnull %9) #12
  call void @llvm.lifetime.end.p0(i64 4, ptr nonnull %8) #12
  call void @llvm.lifetime.end.p0(i64 4, ptr nonnull %7) #12
  ret i32 %46
}